
hello_module.ko:     file format elf64-x86-64


Disassembly of section .text:

0000000000000000 <init_module>:
   0:	e8 00 00 00 00       	callq  5 <init_module+0x5>
   5:	55                   	push   %rbp
   6:	48 c7 c7 00 00 00 00 	mov    $0x0,%rdi
   d:	c6 05 00 00 00 00 68 	movb   $0x68,0x0(%rip)        # 14 <init_module+0x14>
  14:	48 89 e5             	mov    %rsp,%rbp
  17:	e8 00 00 00 00       	callq  1c <init_module+0x1c>
  1c:	31 c0                	xor    %eax,%eax
  1e:	5d                   	pop    %rbp
  1f:	c3                   	retq   

0000000000000020 <cleanup_module>:
  20:	e8 00 00 00 00       	callq  25 <cleanup_module+0x5>
  25:	55                   	push   %rbp
  26:	48 c7 c7 00 00 00 00 	mov    $0x0,%rdi
  2d:	48 89 e5             	mov    %rsp,%rbp
  30:	e8 00 00 00 00       	callq  35 <cleanup_module+0x15>
  35:	5d                   	pop    %rbp
  36:	c3                   	retq   

Disassembly of section .modinfo:

0000000000000000 <__UNIQUE_ID_license8>:
   0:	6c                   	insb   (%dx),%es:(%rdi)
   1:	69 63 65 6e 73 65 3d 	imul   $0x3d65736e,0x65(%rbx),%esp
   8:	47 50                	rex.RXB push %r8
   a:	4c 00 00             	rex.WR add %r8b,(%rax)
   d:	00 00                	add    %al,(%rax)
	...

0000000000000010 <__UNIQUE_ID_srcversion9>:
  10:	73 72                	jae    84 <__UNIQUE_ID_vermagic8+0x43>
  12:	63 76 65             	movslq 0x65(%rsi),%esi
  15:	72 73                	jb     8a <__UNIQUE_ID_vermagic8+0x49>
  17:	69 6f 6e 3d 35 33 45 	imul   $0x4533353d,0x6e(%rdi),%ebp
  1e:	32 35 44 45 46 34    	xor    0x34464544(%rip),%dh        # 34464568 <__UNIQUE_ID_vermagic8+0x34464527>
  24:	45 39 38             	cmp    %r15d,(%r8)
  27:	31 46 46             	xor    %eax,0x46(%rsi)
  2a:	46 33 35 33 37 30 33 	rex.RX xor 0x33303733(%rip),%r14d        # 33303764 <__UNIQUE_ID_vermagic8+0x33303723>
  31:	34 00                	xor    $0x0,%al
  33:	00 00                	add    %al,(%rax)
  35:	00 00                	add    %al,(%rax)
	...

0000000000000038 <__module_depends>:
  38:	64 65 70 65          	fs gs jo a1 <__UNIQUE_ID_vermagic8+0x60>
  3c:	6e                   	outsb  %ds:(%rsi),(%dx)
  3d:	64 73 3d             	fs jae 7d <__UNIQUE_ID_vermagic8+0x3c>
	...

0000000000000041 <__UNIQUE_ID_vermagic8>:
  41:	76 65                	jbe    a8 <__UNIQUE_ID_vermagic8+0x67>
  43:	72 6d                	jb     b2 <__UNIQUE_ID_vermagic8+0x71>
  45:	61                   	(bad)  
  46:	67 69 63 3d 34 2e 31 	imul   $0x30312e34,0x3d(%ebx),%esp
  4d:	30 
  4e:	2e 30 2d 34 32 2d 67 	xor    %ch,%cs:0x672d3234(%rip)        # 672d3289 <__UNIQUE_ID_vermagic8+0x672d3248>
  55:	65 6e                	outsb  %gs:(%rsi),(%dx)
  57:	65 72 69             	gs jb  c3 <__UNIQUE_ID_vermagic8+0x82>
  5a:	63 20                	movslq (%rax),%esp
  5c:	53                   	push   %rbx
  5d:	4d 50                	rex.WRB push %r8
  5f:	20 6d 6f             	and    %ch,0x6f(%rbp)
  62:	64 5f                	fs pop %rdi
  64:	75 6e                	jne    d4 <__UNIQUE_ID_vermagic8+0x93>
  66:	6c                   	insb   (%dx),%es:(%rdi)
  67:	6f                   	outsl  %ds:(%rsi),(%dx)
  68:	61                   	(bad)  
  69:	64 20 00             	and    %al,%fs:(%rax)

Disassembly of section __mcount_loc:

0000000000000000 <__mcount_loc>:
	...
